target datalayout = "e-m:e-p270:32:32-p271:32:32-p272:64:64-i64:64-i128:128-f80:128-n8:16:32:64-S128"
target triple = "x86_64-pc-linux-gnu"

%struct.stbtt__edge = type { float, float, float, float, i32 }

; Function Attrs: nounwind uwtable
define void @stbtt__sort_edges_ins_sort(ptr noundef %0, i32 noundef %1) #0 {
  %3 = alloca ptr, align 8
  %4 = alloca i32, align 4
  %5 = alloca i32, align 4
  %6 = alloca i32, align 4
  %7 = alloca %struct.stbtt__edge, align 4
  %8 = alloca ptr, align 8
  %9 = alloca ptr, align 8
  %10 = alloca i32, align 4
  %11 = alloca i32, align 4
  store ptr %0, ptr %3, align 8, !tbaa !115
  store i32 %1, ptr %4, align 4, !tbaa !14
  call void @llvm.lifetime.start.p0(i64 4, ptr %5) #8
  call void @llvm.lifetime.start.p0(i64 4, ptr %6) #8
  store i32 1, ptr %5, align 4, !tbaa !14
  br label %12

12:                                               ; preds = %67, %2
  %13 = load i32, ptr %5, align 4, !tbaa !14
  %14 = load i32, ptr %4, align 4, !tbaa !14
  %15 = icmp slt i32 %13, %14
  br i1 %15, label %16, label %70

16:                                               ; preds = %12
  call void @llvm.lifetime.start.p0(i64 20, ptr %7) #8
  %17 = load ptr, ptr %3, align 8, !tbaa !115
  %18 = load i32, ptr %5, align 4, !tbaa !14
  %19 = sext i32 %18 to i64
  %20 = getelementptr inbounds %struct.stbtt__edge, ptr %17, i64 %19
  call void @llvm.memcpy.p0.p0.i64(ptr align 4 %7, ptr align 4 %20, i64 20, i1 false), !tbaa.struct !150
  call void @llvm.lifetime.start.p0(i64 8, ptr %8) #8
  store ptr %7, ptr %8, align 8, !tbaa !115
  %21 = load i32, ptr %5, align 4, !tbaa !14
  store i32 %21, ptr %6, align 4, !tbaa !14
  br label %22

22:                                               ; preds = %56, %16
  %23 = load i32, ptr %6, align 4, !tbaa !14
  %24 = icmp sgt i32 %23, 0
  br i1 %24, label %25, label %57

25:                                               ; preds = %22
  call void @llvm.lifetime.start.p0(i64 8, ptr %9) #8
  %26 = load ptr, ptr %3, align 8, !tbaa !115
  %27 = load i32, ptr %6, align 4, !tbaa !14
  %28 = sub nsw i32 %27, 1
  %29 = sext i32 %28 to i64
  %30 = getelementptr inbounds %struct.stbtt__edge, ptr %26, i64 %29
  store ptr %30, ptr %9, align 8, !tbaa !115
  call void @llvm.lifetime.start.p0(i64 4, ptr %10) #8
  %31 = load ptr, ptr %8, align 8, !tbaa !115
  %32 = getelementptr inbounds nuw %struct.stbtt__edge, ptr %31, i32 0, i32 1
  %33 = load float, ptr %32, align 4, !tbaa !123
  %34 = load ptr, ptr %9, align 8, !tbaa !115
  %35 = getelementptr inbounds nuw %struct.stbtt__edge, ptr %34, i32 0, i32 1
  %36 = load float, ptr %35, align 4, !tbaa !123
  %37 = fcmp olt float %33, %36
  %38 = zext i1 %37 to i32
  store i32 %38, ptr %10, align 4, !tbaa !14
  %39 = load i32, ptr %10, align 4, !tbaa !14
  %40 = icmp ne i32 %39, 0
  br i1 %40, label %42, label %41

41:                                               ; preds = %25
  store i32 6, ptr %11, align 4
  br label %54

42:                                               ; preds = %25
  %43 = load ptr, ptr %3, align 8, !tbaa !115
  %44 = load i32, ptr %6, align 4, !tbaa !14
  %45 = sext i32 %44 to i64
  %46 = getelementptr inbounds %struct.stbtt__edge, ptr %43, i64 %45
  %47 = load ptr, ptr %3, align 8, !tbaa !115
  %48 = load i32, ptr %6, align 4, !tbaa !14
  %49 = sub nsw i32 %48, 1
  %50 = sext i32 %49 to i64
  %51 = getelementptr inbounds %struct.stbtt__edge, ptr %47, i64 %50
  call void @llvm.memcpy.p0.p0.i64(ptr align 4 %46, ptr align 4 %51, i64 20, i1 false), !tbaa.struct !150
  %52 = load i32, ptr %6, align 4, !tbaa !14
  %53 = add nsw i32 %52, -1
  store i32 %53, ptr %6, align 4, !tbaa !14
  store i32 0, ptr %11, align 4
  br label %54

54:                                               ; preds = %42, %41
  call void @llvm.lifetime.end.p0(i64 4, ptr %10) #8
  call void @llvm.lifetime.end.p0(i64 8, ptr %9) #8
  %55 = load i32, ptr %11, align 4
  switch i32 %55, label %71 [
    i32 0, label %56
    i32 6, label %57
  ]

56:                                               ; preds = %54
  br label %22, !llvm.loop !151

57:                                               ; preds = %54, %22
  %58 = load i32, ptr %5, align 4, !tbaa !14
  %59 = load i32, ptr %6, align 4, !tbaa !14
  %60 = icmp ne i32 %58, %59
  br i1 %60, label %61, label %66

61:                                               ; preds = %57
  %62 = load ptr, ptr %3, align 8, !tbaa !115
  %63 = load i32, ptr %6, align 4, !tbaa !14
  %64 = sext i32 %63 to i64
  %65 = getelementptr inbounds %struct.stbtt__edge, ptr %62, i64 %64
  call void @llvm.memcpy.p0.p0.i64(ptr align 4 %65, ptr align 4 %7, i64 20, i1 false), !tbaa.struct !150
  br label %66

66:                                               ; preds = %61, %57
  call void @llvm.lifetime.end.p0(i64 8, ptr %8) #8
  call void @llvm.lifetime.end.p0(i64 20, ptr %7) #8
  br label %67

67:                                               ; preds = %66
  %68 = load i32, ptr %5, align 4, !tbaa !14
  %69 = add nsw i32 %68, 1
  store i32 %69, ptr %5, align 4, !tbaa !14
  br label %12, !llvm.loop !152

70:                                               ; preds = %12
  call void @llvm.lifetime.end.p0(i64 4, ptr %6) #8
  call void @llvm.lifetime.end.p0(i64 4, ptr %5) #8
  ret void

71:                                               ; preds = %54
  unreachable
}