; Function Attrs: nofree norecurse nosync nounwind memory(argmem: readwrite) uwtable
define void @stbtt__sort_edges_ins_sort(ptr noundef captures(none) %0, i32 noundef %1) local_unnamed_addr #22 {
  %.sroa.5 = alloca { float, float, i32 }, align 8
  %3 = icmp sgt i32 %1, 1
  br i1 %3, label %.lr.ph.preheader, label %._crit_edge

.lr.ph.preheader:                                 ; preds = %2
  %wide.trip.count = zext nneg i32 %1 to i64
  br label %.lr.ph

.lr.ph:                                           ; preds = %.lr.ph.preheader, %18
  %indvars.iv = phi i64 [ 1, %.lr.ph.preheader ], [ %indvars.iv.next, %18 ]
  call void @llvm.lifetime.start.p0(i64 12, ptr nonnull %.sroa.5)
  %4 = getelementptr inbounds nuw %struct.stbtt__edge, ptr %0, i64 %indvars.iv
  %.sroa.0.0.copyload = load float, ptr %4, align 4, !tbaa !71
  %.sroa.4.0..sroa_idx = getelementptr inbounds nuw i8, ptr %4, i64 4
  %.sroa.4.0.copyload = load float, ptr %.sroa.4.0..sroa_idx, align 4, !tbaa !71
  %.sroa.5.0..sroa_idx = getelementptr inbounds nuw i8, ptr %4, i64 8
  call void @llvm.memcpy.p0.p0.i64(ptr noundef nonnull align 8 dereferenceable(12) %.sroa.5, ptr noundef nonnull align 4 dereferenceable(12) %.sroa.5.0..sroa_idx, i64 12, i1 false), !tbaa.struct !129
  br label %5

5:                                                ; preds = %.lr.ph, %10
  %indvars.iv32 = phi i64 [ %indvars.iv, %.lr.ph ], [ %indvars.iv.next33, %10 ]
  %6 = getelementptr %struct.stbtt__edge, ptr %0, i64 %indvars.iv32
  %7 = getelementptr i8, ptr %6, i64 -16
  %8 = load float, ptr %7, align 4, !tbaa !104
  %9 = fcmp olt float %.sroa.4.0.copyload, %8
  br i1 %9, label %10, label %.thread.split.loop.exit

10:                                               ; preds = %5
  %11 = getelementptr i8, ptr %6, i64 -20
  tail call void @llvm.memcpy.p0.p0.i64(ptr noundef nonnull align 4 dereferenceable(20) %6, ptr noundef nonnull align 4 dereferenceable(20) %11, i64 20, i1 false), !tbaa.struct !130
  %indvars.iv.next33 = add nsw i64 %indvars.iv32, -1
  %12 = icmp sgt i64 %indvars.iv32, 1
  br i1 %12, label %5, label %.thread

.thread.split.loop.exit:                          ; preds = %5
  %13 = trunc nuw nsw i64 %indvars.iv32 to i32
  br label %.thread

.thread:                                          ; preds = %10, %.thread.split.loop.exit
  %.022.lcssa = phi i32 [ %13, %.thread.split.loop.exit ], [ 0, %10 ]
  %14 = zext i32 %.022.lcssa to i64
  %.not = icmp eq i64 %indvars.iv, %14
  br i1 %.not, label %18, label %15

15:                                               ; preds = %.thread
  %16 = sext i32 %.022.lcssa to i64
  %17 = getelementptr inbounds %struct.stbtt__edge, ptr %0, i64 %16
  store float %.sroa.0.0.copyload, ptr %17, align 4, !tbaa !71
  %.sroa.4.0..sroa_idx24 = getelementptr inbounds nuw i8, ptr %17, i64 4
  store float %.sroa.4.0.copyload, ptr %.sroa.4.0..sroa_idx24, align 4, !tbaa !71
  %.sroa.5.0..sroa_idx26 = getelementptr inbounds nuw i8, ptr %17, i64 8
  call void @llvm.memcpy.p0.p0.i64(ptr noundef nonnull align 4 dereferenceable(12) %.sroa.5.0..sroa_idx26, ptr noundef nonnull align 8 dereferenceable(12) %.sroa.5, i64 12, i1 false), !tbaa.struct !129
  br label %18

18:                                               ; preds = %15, %.thread
  call void @llvm.lifetime.end.p0(i64 12, ptr nonnull %.sroa.5)
  %indvars.iv.next = add nuw nsw i64 %indvars.iv, 1
  %exitcond.not = icmp eq i64 %indvars.iv.next, %wide.trip.count
  br i1 %exitcond.not, label %._crit_edge, label %.lr.ph, !llvm.loop !131

._crit_edge:                                      ; preds = %18, %2
  ret void
}